Certificate:
    Data:
        Version: 3 (0x2)
        Serial Number:
            e7:19:65:e3:35:f5:a0:7d
    Signature Algorithm: sha256WithRSAEncryption
        Issuer: C=RU, ST=RU, O=VSK, OU=IT, CN=vskca2/emailAddress=is@vsk.ru
        Validity
            Not Before: Aug  4 09:32:19 2020 GMT
            Not After : Aug  4 09:32:19 2021 GMT
        Subject: C=RU, ST=RF, L=MOSCOW, O=PAREKS, OU=INS, CN=PAREKS/emailAddress=it@benfin.ru
        Subject Public Key Info:
            Public Key Algorithm: rsaEncryption
                Public-Key: (2048 bit)
                Modulus:
                    00:b0:4b:0b:0e:fe:d9:c9:9a:bf:37:87:0e:38:b7:
                    bc:1a:f9:4c:e5:af:43:5d:8a:aa:1b:c6:40:48:f0:
                    c2:85:83:f0:74:a2:58:24:79:43:9f:61:47:c1:df:
                    ee:56:f4:f3:bb:d1:b1:57:09:ce:8e:0a:5b:83:fc:
                    ae:94:b6:86:cd:3b:17:f1:01:fa:41:59:a5:5c:57:
                    9e:d9:41:65:72:bc:a1:06:09:87:b9:31:3f:10:0f:
                    0c:65:10:c2:57:fc:63:4d:d8:8a:f1:cf:fa:38:34:
                    80:63:84:21:5c:16:8a:ed:65:16:a8:4f:5d:f6:45:
                    b4:e6:f3:62:15:17:7f:0e:26:4a:f2:da:ea:c3:ec:
                    1d:08:d4:67:8b:ff:4e:80:01:43:4e:a2:23:60:bc:
                    a0:d9:48:41:92:24:ed:6c:55:69:4a:6a:2a:60:dd:
                    04:a6:fd:48:80:88:6c:0f:fa:db:a4:1a:f3:26:13:
                    95:c3:81:38:97:54:0d:1a:c9:40:8e:da:d5:34:6d:
                    92:ba:ae:d6:0e:2f:ea:c3:17:0d:7e:c0:8f:70:0d:
                    b5:07:ad:86:c0:01:13:79:db:cc:f0:83:33:25:5f:
                    64:c5:01:3d:76:af:6c:2e:de:bd:13:fd:aa:f4:21:
                    aa:55:61:8d:62:80:44:b3:c7:94:48:c9:46:c0:54:
                    a1:05
                Exponent: 65537 (0x10001)
        X509v3 extensions:
            X509v3 Basic Constraints: 
                CA:FALSE
            Netscape Comment: 
                OpenSSL Generated Certificate
            X509v3 Subject Key Identifier: 
                AA:EF:7A:7F:13:B3:B9:C2:3E:F0:2A:00:E8:14:1A:53:08:30:B5:FC
            X509v3 Authority Key Identifier: 
                keyid:C2:FE:20:C9:6B:2D:D9:74:78:37:09:6E:A6:34:3A:C7:D1:66:18:C8

    Signature Algorithm: sha256WithRSAEncryption
         86:20:88:7d:20:25:d0:93:e3:bd:6d:7a:e5:2f:34:bb:93:3f:
         3a:27:28:32:f2:8c:81:2f:b4:1d:5d:ca:b7:11:12:9a:59:d0:
         9e:b4:98:9e:bf:4d:e0:0e:56:5a:ca:02:ad:32:98:a3:69:c4:
         61:4b:58:69:6a:2c:c6:11:c4:61:b4:90:24:5b:17:f2:f5:11:
         d9:6e:61:1e:0a:e7:b6:12:be:de:88:7a:08:94:e7:6b:78:8f:
         bf:39:11:51:5a:b3:2b:a5:d4:4d:ff:f6:6b:9f:ec:06:d4:78:
         f5:13:57:4a:f1:5f:90:ae:76:77:92:82:8e:d6:98:5c:8e:26:
         af:93:1e:ca:fe:c7:a2:0e:51:91:26:e4:a0:f3:06:92:b4:81:
         ee:33:b0:43:b3:88:73:3d:5b:49:35:60:e0:6d:38:06:99:97:
         71:e5:06:67:9e:64:cb:a1:3f:3d:51:16:a0:3e:eb:a3:25:fd:
         c0:77:b3:93:a9:25:6a:a8:37:11:cd:c6:62:77:95:63:91:d1:
         d4:bb:61:f1:f0:de:99:70:0d:2f:38:5d:0f:b3:a5:39:8b:ea:
         9d:6d:5a:cd:5c:1b:05:46:62:9c:3b:e9:da:2d:3d:fc:9f:75:
         6f:90:b7:8a:29:e9:1a:df:c3:c8:c1:d0:f7:fe:05:14:c2:40:
         ad:4c:10:51
-----BEGIN CERTIFICATE-----
MIID1jCCAr6gAwIBAgIJAOcZZeM19aB9MA0GCSqGSIb3DQEBCwUAMGAxCzAJBgNV
BAYTAlJVMQswCQYDVQQIDAJSVTEMMAoGA1UECgwDVlNLMQswCQYDVQQLDAJJVDEP
MA0GA1UEAwwGdnNrY2EyMRgwFgYJKoZIhvcNAQkBFglpc0B2c2sucnUwHhcNMjAw
ODA0MDkzMjE5WhcNMjEwODA0MDkzMjE5WjB4MQswCQYDVQQGEwJSVTELMAkGA1UE
CAwCUkYxDzANBgNVBAcMBk1PU0NPVzEPMA0GA1UECgwGUEFSRUtTMQwwCgYDVQQL
DANJTlMxDzANBgNVBAMMBlBBUkVLUzEbMBkGCSqGSIb3DQEJARYMaXRAYmVuZmlu
LnJ1MIIBIjANBgkqhkiG9w0BAQEFAAOCAQ8AMIIBCgKCAQEAsEsLDv7ZyZq/N4cO
OLe8GvlM5a9DXYqqG8ZASPDChYPwdKJYJHlDn2FHwd/uVvTzu9GxVwnOjgpbg/yu
lLaGzTsX8QH6QVmlXFee2UFlcryhBgmHuTE/EA8MZRDCV/xjTdiK8c/6ODSAY4Qh
XBaK7WUWqE9d9kW05vNiFRd/DiZK8trqw+wdCNRni/9OgAFDTqIjYLyg2UhBkiTt
bFVpSmoqYN0Epv1IgIhsD/rbpBrzJhOVw4E4l1QNGslAjtrVNG2Suq7WDi/qwxcN
fsCPcA21B62GwAETedvM8IMzJV9kxQE9dq9sLt69E/2q9CGqVWGNYoBEs8eUSMlG
wFShBQIDAQABo3sweTAJBgNVHRMEAjAAMCwGCWCGSAGG+EIBDQQfFh1PcGVuU1NM
IEdlbmVyYXRlZCBDZXJ0aWZpY2F0ZTAdBgNVHQ4EFgQUqu96fxOzucI+8CoA6BQa
UwgwtfwwHwYDVR0jBBgwFoAUwv4gyWst2XR4NwlupjQ6x9FmGMgwDQYJKoZIhvcN
AQELBQADggEBAIYgiH0gJdCT471teuUvNLuTPzonKDLyjIEvtB1dyrcREppZ0J60
mJ6/TeAOVlrKAq0ymKNpxGFLWGlqLMYRxGG0kCRbF/L1EdluYR4K57YSvt6IegiU
52t4j785EVFasyul1E3/9muf7AbUePUTV0rxX5CudneSgo7WmFyOJq+THsr+x6IO
UZEm5KDzBpK0ge4zsEOziHM9W0k1YOBtOAaZl3HlBmeeZMuhPz1RFqA+66Ml/cB3
s5OpJWqoNxHNxmJ3lWOR0dS7YfHw3plwDS84XQ+zpTmL6p1tWs1cGwVGYpw76dot
PfyfdW+Qt4op6Rrfw8jB0Pf+BRTCQK1MEFE=
-----END CERTIFICATE-----
